; Function Attrs: null_pointer_is_valid sspstrong uwtable
define internal i32 @dissect_sv_T_smpCnt(i1 noundef zeroext %0, ptr noundef %1, i32 noundef %2, ptr noundef %3, ptr noundef %4, i32 noundef %5) #0 {
  %7 = alloca i32, align 4
  call void @llvm.lifetime.start.p0(i64 4, ptr nonnull %7) #3
  %8 = call i32 @dissect_ber_integer(i1 noundef zeroext %0, ptr noundef %3, ptr noundef %4, ptr noundef %1, i32 noundef %2, i32 noundef %5, ptr noundef nonnull %7)
  %9 = load i32, ptr %7, align 4
  %10 = trunc i32 %9 to i16
  store i16 %10, ptr @sv_data, align 4
  call void @llvm.lifetime.end.p0(i64 4, ptr nonnull %7) #3
  ret i32 %8
}